; ModuleID = 'source-C-CXX/20/1231.cpp'
source_filename = "source-C-CXX/20/1231.cpp"
target datalayout = "e-m:e-p270:32:32-p271:32:32-p272:64:64-i64:64-f80:128-n8:16:32:64-S128"
target triple = "x86_64-pc-linux-gnu"

%"class.std::ios_base::Init" = type { i8 }
%"class.std::basic_istream" = type { i32 (...)**, i64, %"class.std::basic_ios" }
%"class.std::basic_ios" = type { %"class.std::ios_base", %"class.std::basic_ostream"*, i8, i8, %"class.std::basic_streambuf"*, %"class.std::ctype"*, %"class.std::num_put"*, %"class.std::num_get"* }
%"class.std::ios_base" = type { i32 (...)**, i64, i64, i32, i32, i32, %"struct.std::ios_base::_Callback_list"*, %"struct.std::ios_base::_Words", [8 x %"struct.std::ios_base::_Words"], i32, %"struct.std::ios_base::_Words"*, %"class.std::locale" }
%"struct.std::ios_base::_Callback_list" = type { %"struct.std::ios_base::_Callback_list"*, void (i32, %"class.std::ios_base"*, i32)*, i32, i32 }
%"struct.std::ios_base::_Words" = type { i8*, i64 }
%"class.std::locale" = type { %"class.std::locale::_Impl"* }
%"class.std::locale::_Impl" = type { i32, %"class.std::locale::facet"**, i64, %"class.std::locale::facet"**, i8** }
%"class.std::locale::facet" = type <{ i32 (...)**, i32, [4 x i8] }>
%"class.std::basic_ostream" = type { i32 (...)**, %"class.std::basic_ios" }
%"class.std::basic_streambuf" = type { i32 (...)**, i8*, i8*, i8*, i8*, i8*, i8*, %"class.std::locale" }
%"class.std::ctype" = type <{ %"class.std::locale::facet.base", [4 x i8], %struct.__locale_struct*, i8, [7 x i8], i32*, i32*, i16*, i8, [256 x i8], [256 x i8], i8, [6 x i8] }>
%"class.std::locale::facet.base" = type <{ i32 (...)**, i32 }>
%struct.__locale_struct = type { [13 x %struct.__locale_data*], i16*, i32*, i32*, [13 x i8*] }
%struct.__locale_data = type opaque
%"class.std::num_put" = type { %"class.std::locale::facet.base", [4 x i8] }
%"class.std::num_get" = type { %"class.std::locale::facet.base", [4 x i8] }

@_ZStL8__ioinit = internal global %"class.std::ios_base::Init" zeroinitializer, align 1
@__dso_handle = external hidden global i8
@_ZSt3cin = external global %"class.std::basic_istream", align 8
@_ZSt4cout = external global %"class.std::basic_ostream", align 8
@.str = private unnamed_addr constant [2 x i8] c",\00", align 1
@llvm.global_ctors = appending global [1 x { i32, void ()*, i8* }] [{ i32, void ()*, i8* } { i32 65535, void ()* @_GLOBAL__sub_I_1231.cpp, i8* null }]

declare void @_ZNSt8ios_base4InitC1Ev(%"class.std::ios_base::Init"* nonnull align 1 dereferenceable(1)) unnamed_addr #0

; Function Attrs: nounwind
declare void @_ZNSt8ios_base4InitD1Ev(%"class.std::ios_base::Init"* nonnull align 1 dereferenceable(1)) unnamed_addr #1

; Function Attrs: nofree nounwind
declare i32 @__cxa_atexit(void (i8*)*, i8*, i8*) local_unnamed_addr #2

; Function Attrs: mustprogress norecurse sspstrong uwtable
define dso_local i32 @main() local_unnamed_addr #3 {
  %1 = alloca i32, align 4
  %2 = alloca [301 x i32], align 16
  %3 = bitcast i32* %1 to i8*
  call void @llvm.lifetime.start.p0i8(i64 4, i8* nonnull %3) #7
  %4 = call nonnull align 8 dereferenceable(16) %"class.std::basic_istream"* @_ZNSirsERi(%"class.std::basic_istream"* nonnull align 8 dereferenceable(16) @_ZSt3cin, i32* nonnull align 4 dereferenceable(4) %1)
  %5 = bitcast [301 x i32]* %2 to i8*
  call void @llvm.lifetime.start.p0i8(i64 1204, i8* nonnull %5) #7
  %6 = load i32, i32* %1, align 4, !tbaa !5
  %7 = icmp sgt i32 %6, 0
  br i1 %7, label %17, label %139

8:                                                ; preds = %17
  %9 = icmp sgt i32 %22, 0
  br i1 %9, label %10, label %139

10:                                               ; preds = %8
  %11 = zext i32 %22 to i64
  %12 = add nsw i64 %11, -1
  %13 = and i64 %11, 3
  %14 = icmp ult i64 %12, 3
  br i1 %14, label %51, label %15

15:                                               ; preds = %10
  %16 = and i64 %11, 4294967292
  br label %25

17:                                               ; preds = %0, %17
  %18 = phi i64 [ %21, %17 ], [ 0, %0 ]
  %19 = getelementptr inbounds [301 x i32], [301 x i32]* %2, i64 0, i64 %18
  %20 = call nonnull align 8 dereferenceable(16) %"class.std::basic_istream"* @_ZNSirsERi(%"class.std::basic_istream"* nonnull align 8 dereferenceable(16) @_ZSt3cin, i32* nonnull align 4 dereferenceable(4) %19)
  %21 = add nuw nsw i64 %18, 1
  %22 = load i32, i32* %1, align 4, !tbaa !5
  %23 = sext i32 %22 to i64
  %24 = icmp slt i64 %21, %23
  br i1 %24, label %17, label %8, !llvm.loop !9

25:                                               ; preds = %25, %15
  %26 = phi i64 [ 0, %15 ], [ %48, %25 ]
  %27 = phi double [ 0.000000e+00, %15 ], [ %47, %25 ]
  %28 = phi i64 [ %16, %15 ], [ %49, %25 ]
  %29 = getelementptr inbounds [301 x i32], [301 x i32]* %2, i64 0, i64 %26
  %30 = load i32, i32* %29, align 16, !tbaa !5
  %31 = sitofp i32 %30 to double
  %32 = fadd double %27, %31
  %33 = or i64 %26, 1
  %34 = getelementptr inbounds [301 x i32], [301 x i32]* %2, i64 0, i64 %33
  %35 = load i32, i32* %34, align 4, !tbaa !5
  %36 = sitofp i32 %35 to double
  %37 = fadd double %32, %36
  %38 = or i64 %26, 2
  %39 = getelementptr inbounds [301 x i32], [301 x i32]* %2, i64 0, i64 %38
  %40 = load i32, i32* %39, align 8, !tbaa !5
  %41 = sitofp i32 %40 to double
  %42 = fadd double %37, %41
  %43 = or i64 %26, 3
  %44 = getelementptr inbounds [301 x i32], [301 x i32]* %2, i64 0, i64 %43
  %45 = load i32, i32* %44, align 4, !tbaa !5
  %46 = sitofp i32 %45 to double
  %47 = fadd double %42, %46
  %48 = add nuw nsw i64 %26, 4
  %49 = add i64 %28, -4
  %50 = icmp eq i64 %49, 0
  br i1 %50, label %51, label %25, !llvm.loop !11

51:                                               ; preds = %25, %10
  %52 = phi double [ undef, %10 ], [ %47, %25 ]
  %53 = phi i64 [ 0, %10 ], [ %48, %25 ]
  %54 = phi double [ 0.000000e+00, %10 ], [ %47, %25 ]
  %55 = icmp eq i64 %13, 0
  br i1 %55, label %67, label %56

56:                                               ; preds = %51, %56
  %57 = phi i64 [ %64, %56 ], [ %53, %51 ]
  %58 = phi double [ %63, %56 ], [ %54, %51 ]
  %59 = phi i64 [ %65, %56 ], [ %13, %51 ]
  %60 = getelementptr inbounds [301 x i32], [301 x i32]* %2, i64 0, i64 %57
  %61 = load i32, i32* %60, align 4, !tbaa !5
  %62 = sitofp i32 %61 to double
  %63 = fadd double %58, %62
  %64 = add nuw nsw i64 %57, 1
  %65 = add i64 %59, -1
  %66 = icmp eq i64 %65, 0
  br i1 %66, label %67, label %56, !llvm.loop !12

67:                                               ; preds = %56, %51
  %68 = phi double [ %52, %51 ], [ %63, %56 ]
  %69 = sitofp i32 %22 to double
  %70 = fdiv double %68, %69
  br i1 %9, label %71, label %139

71:                                               ; preds = %67
  %72 = and i64 %11, 1
  %73 = icmp eq i64 %12, 0
  br i1 %73, label %98, label %74

74:                                               ; preds = %71
  %75 = and i64 %11, 4294967294
  br label %76

76:                                               ; preds = %76, %74
  %77 = phi i64 [ 0, %74 ], [ %95, %76 ]
  %78 = phi double [ 0.000000e+00, %74 ], [ %94, %76 ]
  %79 = phi i64 [ %75, %74 ], [ %96, %76 ]
  %80 = getelementptr inbounds [301 x i32], [301 x i32]* %2, i64 0, i64 %77
  %81 = load i32, i32* %80, align 8, !tbaa !5
  %82 = sitofp i32 %81 to double
  %83 = fsub double %70, %82
  %84 = call double @llvm.fabs.f64(double %83)
  %85 = fcmp ogt double %84, %78
  %86 = select i1 %85, double %84, double %78
  %87 = or i64 %77, 1
  %88 = getelementptr inbounds [301 x i32], [301 x i32]* %2, i64 0, i64 %87
  %89 = load i32, i32* %88, align 4, !tbaa !5
  %90 = sitofp i32 %89 to double
  %91 = fsub double %70, %90
  %92 = call double @llvm.fabs.f64(double %91)
  %93 = fcmp ogt double %92, %86
  %94 = select i1 %93, double %92, double %86
  %95 = add nuw nsw i64 %77, 2
  %96 = add i64 %79, -2
  %97 = icmp eq i64 %96, 0
  br i1 %97, label %98, label %76, !llvm.loop !14

98:                                               ; preds = %76, %71
  %99 = phi double [ undef, %71 ], [ %94, %76 ]
  %100 = phi i64 [ 0, %71 ], [ %95, %76 ]
  %101 = phi double [ 0.000000e+00, %71 ], [ %94, %76 ]
  %102 = icmp eq i64 %72, 0
  br i1 %102, label %111, label %103

103:                                              ; preds = %98
  %104 = getelementptr inbounds [301 x i32], [301 x i32]* %2, i64 0, i64 %100
  %105 = load i32, i32* %104, align 4, !tbaa !5
  %106 = sitofp i32 %105 to double
  %107 = fsub double %70, %106
  %108 = call double @llvm.fabs.f64(double %107)
  %109 = fcmp ogt double %108, %101
  %110 = select i1 %109, double %108, double %101
  br label %111

111:                                              ; preds = %98, %103
  %112 = phi double [ %99, %98 ], [ %110, %103 ]
  br label %113

113:                                              ; preds = %111, %133
  %114 = phi i64 [ %135, %133 ], [ 0, %111 ]
  %115 = phi i32 [ %134, %133 ], [ 0, %111 ]
  %116 = getelementptr inbounds [301 x i32], [301 x i32]* %2, i64 0, i64 %114
  %117 = load i32, i32* %116, align 4, !tbaa !5
  %118 = sitofp i32 %117 to double
  %119 = fsub double %70, %118
  %120 = call double @llvm.fabs.f64(double %119)
  %121 = fsub double %112, %120
  %122 = fcmp olt double %121, 1.000000e-10
  br i1 %122, label %123, label %133

123:                                              ; preds = %113
  %124 = icmp eq i32 %115, 0
  br i1 %124, label %129, label %125

125:                                              ; preds = %123
  %126 = add nsw i32 %115, 1
  %127 = call nonnull align 8 dereferenceable(8) %"class.std::basic_ostream"* @_ZSt16__ostream_insertIcSt11char_traitsIcEERSt13basic_ostreamIT_T0_ES6_PKS3_l(%"class.std::basic_ostream"* nonnull align 8 dereferenceable(8) @_ZSt4cout, i8* nonnull getelementptr inbounds ([2 x i8], [2 x i8]* @.str, i64 0, i64 0), i64 1)
  %128 = load i32, i32* %116, align 4, !tbaa !5
  br label %129

129:                                              ; preds = %123, %125
  %130 = phi i32 [ %128, %125 ], [ %117, %123 ]
  %131 = phi i32 [ %126, %125 ], [ 1, %123 ]
  %132 = call nonnull align 8 dereferenceable(8) %"class.std::basic_ostream"* @_ZNSolsEi(%"class.std::basic_ostream"* nonnull align 8 dereferenceable(8) @_ZSt4cout, i32 %130)
  br label %133

133:                                              ; preds = %129, %113
  %134 = phi i32 [ %115, %113 ], [ %131, %129 ]
  %135 = add nuw nsw i64 %114, 1
  %136 = load i32, i32* %1, align 4, !tbaa !5
  %137 = sext i32 %136 to i64
  %138 = icmp slt i64 %135, %137
  br i1 %138, label %113, label %139, !llvm.loop !15

139:                                              ; preds = %133, %0, %8, %67
  call void @llvm.lifetime.end.p0i8(i64 1204, i8* nonnull %5) #7
  call void @llvm.lifetime.end.p0i8(i64 4, i8* nonnull %3) #7
  ret i32 0
}

; Function Attrs: argmemonly mustprogress nofree nosync nounwind willreturn
declare void @llvm.lifetime.start.p0i8(i64 immarg, i8* nocapture) #4

declare nonnull align 8 dereferenceable(16) %"class.std::basic_istream"* @_ZNSirsERi(%"class.std::basic_istream"* nonnull align 8 dereferenceable(16), i32* nonnull align 4 dereferenceable(4)) local_unnamed_addr #0

; Function Attrs: mustprogress nofree nosync nounwind readnone speculatable willreturn
declare double @llvm.fabs.f64(double) #5

declare nonnull align 8 dereferenceable(8) %"class.std::basic_ostream"* @_ZNSolsEi(%"class.std::basic_ostream"* nonnull align 8 dereferenceable(8), i32) local_unnamed_addr #0

; Function Attrs: argmemonly mustprogress nofree nosync nounwind willreturn
declare void @llvm.lifetime.end.p0i8(i64 immarg, i8* nocapture) #4

declare nonnull align 8 dereferenceable(8) %"class.std::basic_ostream"* @_ZSt16__ostream_insertIcSt11char_traitsIcEERSt13basic_ostreamIT_T0_ES6_PKS3_l(%"class.std::basic_ostream"* nonnull align 8 dereferenceable(8), i8*, i64) local_unnamed_addr #0

; Function Attrs: sspstrong uwtable
define internal void @_GLOBAL__sub_I_1231.cpp() #6 section ".text.startup" {
  tail call void @_ZNSt8ios_base4InitC1Ev(%"class.std::ios_base::Init"* nonnull align 1 dereferenceable(1) @_ZStL8__ioinit)
  %1 = tail call i32 @__cxa_atexit(void (i8*)* bitcast (void (%"class.std::ios_base::Init"*)* @_ZNSt8ios_base4InitD1Ev to void (i8*)*), i8* getelementptr inbounds (%"class.std::ios_base::Init", %"class.std::ios_base::Init"* @_ZStL8__ioinit, i64 0, i32 0), i8* nonnull @__dso_handle) #7
  ret void
}


!llvm.module.flags = !{!0, !1, !2, !3}
!llvm.ident = !{!4}

!0 = !{i32 1, !"wchar_size", i32 4}
!1 = !{i32 7, !"PIC Level", i32 2}
!2 = !{i32 7, !"PIE Level", i32 2}
!3 = !{i32 7, !"uwtable", i32 1}
!4 = !{!"clang version 13.0.0"}
!5 = !{!6, !6, i64 0}
!6 = !{!"int", !7, i64 0}
!7 = !{!"omnipotent char", !8, i64 0}
!8 = !{!"Simple C++ TBAA"}
!9 = distinct !{!9, !10}
!10 = !{!"llvm.loop.mustprogress"}
!11 = distinct !{!11, !10}
!12 = distinct !{!12, !13}
!13 = !{!"llvm.loop.unroll.disable"}
!14 = distinct !{!14, !10}
!15 = distinct !{!15, !10}
